target datalayout = "e-m:e-p270:32:32-p271:32:32-p272:64:64-i64:64-i128:128-f80:128-n8:16:32:64-S128"
target triple = "x86_64-pc-linux-gnu"

%"class.dd::simplifier" = type { ptr }
%class.ptr_vector = type { %class.vector }
%class.vector = type { ptr }
%"class.dd::solver" = type { ptr, ptr, ptr, %"class.dd::solver::stats", %"struct.dd::solver::config", %"class.std::function", %class.ptr_vector, %class.ptr_vector, %class.ptr_vector, %class.vector.0, %class.ptr_vector, ptr, i8, i32, %class.svector, %class.svector }
%"class.dd::solver::stats" = type <{ i32, [4 x i8], double, i32, i32, i32, [4 x i8] }>
%"struct.dd::solver::config" = type { i32, i32, i32, i32, i32, i32, i8, i32, i32, i32, i32 }
%"class.std::function" = type { %"class.std::_Function_base", ptr }
%"class.std::_Function_base" = type { %"union.std::_Any_data", ptr }
%"union.std::_Any_data" = type { %"union.std::_Nocopy_types" }
%"union.std::_Nocopy_types" = type { { i64, i64 } }
%class.vector.0 = type { ptr }
%class.svector = type { %class.vector.1 }
%class.vector.1 = type { ptr }
%class.vector.2 = type { ptr }

; Function Attrs: mustprogress nounwind uwtable
define linkonce_odr hidden noundef i32 @_ZNK6vectorIPN2dd6solver8equationELb0EjE4sizeEv(ptr noundef nonnull align 8 dereferenceable(8) %0) #9 comdat align 2 {
  %2 = alloca i32, align 4
  %3 = alloca ptr, align 8
  store ptr %0, ptr %3, align 8, !tbaa !61
  %4 = load ptr, ptr %3, align 8
  %5 = getelementptr inbounds nuw %class.vector, ptr %4, i32 0, i32 0
  %6 = load ptr, ptr %5, align 8, !tbaa !63
  %7 = icmp eq ptr %6, null
  br i1 %7, label %8, label %9

8:                                                ; preds = %1
  store i32 0, ptr %2, align 4
  br label %14

9:                                                ; preds = %1
  %10 = getelementptr inbounds nuw %class.vector, ptr %4, i32 0, i32 0
  %11 = load ptr, ptr %10, align 8, !tbaa !63
  %12 = getelementptr inbounds i32, ptr %11, i64 -1
  %13 = load i32, ptr %12, align 4, !tbaa !29
  store i32 %13, ptr %2, align 4
  br label %14

14:                                               ; preds = %9, %8
  %15 = load i32, ptr %2, align 4
  ret i32 %15
}

; Function Attrs: mustprogress nounwind uwtable
define linkonce_odr hidden noundef ptr @_ZN6vectorIPN2dd6solver8equationELb0EjE3endEv(ptr noundef nonnull align 8 dereferenceable(8) %0) #9 comdat align 2 {
  %2 = alloca ptr, align 8
  store ptr %0, ptr %2, align 8, !tbaa !61
  %3 = load ptr, ptr %2, align 8
  %4 = getelementptr inbounds nuw %class.vector, ptr %3, i32 0, i32 0
  %5 = load ptr, ptr %4, align 8, !tbaa !63
  %6 = call noundef i32 @_ZNK6vectorIPN2dd6solver8equationELb0EjE4sizeEv(ptr noundef nonnull align 8 dereferenceable(8) %3)
  %7 = zext i32 %6 to i64
  %8 = getelementptr inbounds nuw ptr, ptr %5, i64 %7
  ret ptr %8
}

; Function Attrs: mustprogress nounwind uwtable
define linkonce_odr hidden noundef ptr @_ZN6vectorIPN2dd6solver8equationELb0EjE5beginEv(ptr noundef nonnull align 8 dereferenceable(8) %0) #9 comdat align 2 {
  %2 = alloca ptr, align 8
  store ptr %0, ptr %2, align 8, !tbaa !61
  %3 = load ptr, ptr %2, align 8
  %4 = getelementptr inbounds nuw %class.vector, ptr %3, i32 0, i32 0
  %5 = load ptr, ptr %4, align 8, !tbaa !63
  ret ptr %5
}

; Function Attrs: mustprogress nounwind uwtable
define linkonce_odr hidden void @_ZN6vectorI10ptr_vectorIN2dd6solver8equationEELb1EjEC2Ev(ptr noundef nonnull align 8 dereferenceable(8) %0) unnamed_addr #9 comdat align 2 {
  %2 = alloca ptr, align 8
  store ptr %0, ptr %2, align 8, !tbaa !70
  %3 = load ptr, ptr %2, align 8
  %4 = getelementptr inbounds nuw %class.vector.2, ptr %3, i32 0, i32 0
  store ptr null, ptr %4, align 8, !tbaa !72
  ret void
}

; Function Attrs: mustprogress uwtable
define hidden void @_ZN2dd10simplifier12get_use_listEv(ptr dead_on_unwind noalias writable sret(%class.vector.2) align 8 %0, ptr noundef nonnull align 8 dereferenceable(8) %1) #4 align 2 personality ptr @__gxx_personality_v0 {
  %3 = alloca ptr, align 8
  %4 = alloca ptr, align 8
  %5 = alloca i1, align 1
  %6 = alloca ptr, align 8
  %7 = alloca ptr, align 8
  %8 = alloca ptr, align 8
  %9 = alloca i32, align 4
  %10 = alloca ptr, align 8
  %11 = alloca ptr, align 8
  %12 = alloca ptr, align 8
  %13 = alloca ptr, align 8
  %14 = alloca ptr, align 8
  %15 = alloca ptr, align 8
  store ptr %0, ptr %3, align 8
  store ptr %1, ptr %4, align 8, !tbaa !3
  %16 = load ptr, ptr %4, align 8
  store i1 false, ptr %5, align 1
  call void @_ZN6vectorI10ptr_vectorIN2dd6solver8equationEELb1EjEC2Ev(ptr noundef nonnull align 8 dereferenceable(8) %0) #3
  call void @llvm.lifetime.start.p0(i64 8, ptr %6) #3
  %17 = getelementptr inbounds nuw %"class.dd::simplifier", ptr %16, i32 0, i32 0
  %18 = load ptr, ptr %17, align 8, !tbaa !8
  %19 = getelementptr inbounds nuw %"class.dd::solver", ptr %18, i32 0, i32 8
  store ptr %19, ptr %6, align 8, !tbaa !17
  call void @llvm.lifetime.start.p0(i64 8, ptr %7) #3
  %20 = load ptr, ptr %6, align 8, !tbaa !17
  %21 = invoke noundef ptr @_ZN6vectorIPN2dd6solver8equationELb0EjE5beginEv(ptr noundef nonnull align 8 dereferenceable(8) %20)
          to label %22 unwind label %31

22:                                               ; preds = %2
  store ptr %21, ptr %7, align 8, !tbaa !19
  call void @llvm.lifetime.start.p0(i64 8, ptr %10) #3
  %23 = load ptr, ptr %6, align 8, !tbaa !17
  %24 = invoke noundef ptr @_ZN6vectorIPN2dd6solver8equationELb0EjE3endEv(ptr noundef nonnull align 8 dereferenceable(8) %23)
          to label %25 unwind label %35

25:                                               ; preds = %22
  store ptr %24, ptr %10, align 8, !tbaa !19
  br label %26

26:                                               ; preds = %44, %25
  %27 = load ptr, ptr %7, align 8, !tbaa !19
  %28 = load ptr, ptr %10, align 8, !tbaa !19
  %29 = icmp ne ptr %27, %28
  br i1 %29, label %39, label %30

30:                                               ; preds = %26
  call void @llvm.lifetime.end.p0(i64 8, ptr %10) #3
  call void @llvm.lifetime.end.p0(i64 8, ptr %7) #3
  call void @llvm.lifetime.end.p0(i64 8, ptr %6) #3
  br label %53

31:                                               ; preds = %2
  %32 = landingpad { ptr, i32 }
          cleanup
  %33 = extractvalue { ptr, i32 } %32, 0
  store ptr %33, ptr %8, align 8
  %34 = extractvalue { ptr, i32 } %32, 1
  store i32 %34, ptr %9, align 4
  br label %52

35:                                               ; preds = %22
  %36 = landingpad { ptr, i32 }
          cleanup
  %37 = extractvalue { ptr, i32 } %36, 0
  store ptr %37, ptr %8, align 8
  %38 = extractvalue { ptr, i32 } %36, 1
  store i32 %38, ptr %9, align 4
  br label %51

39:                                               ; preds = %26
  call void @llvm.lifetime.start.p0(i64 8, ptr %11) #3
  %40 = load ptr, ptr %7, align 8, !tbaa !19
  %41 = load ptr, ptr %40, align 8, !tbaa !22
  store ptr %41, ptr %11, align 8, !tbaa !22
  %42 = load ptr, ptr %11, align 8, !tbaa !22
  invoke void @_ZN2dd10simplifier10add_to_useEPNS_6solver8equationER6vectorI10ptr_vectorIS2_ELb1EjE(ptr noundef nonnull align 8 dereferenceable(8) %16, ptr noundef %42, ptr noundef nonnull align 8 dereferenceable(8) %0)
          to label %43 unwind label %47

43:                                               ; preds = %39
  call void @llvm.lifetime.end.p0(i64 8, ptr %11) #3
  br label %44

44:                                               ; preds = %43
  %45 = load ptr, ptr %7, align 8, !tbaa !19
  %46 = getelementptr inbounds nuw ptr, ptr %45, i32 1
  store ptr %46, ptr %7, align 8, !tbaa !19
  br label %26

47:                                               ; preds = %39
  %48 = landingpad { ptr, i32 }
          cleanup
  %49 = extractvalue { ptr, i32 } %48, 0
  store ptr %49, ptr %8, align 8
  %50 = extractvalue { ptr, i32 } %48, 1
  store i32 %50, ptr %9, align 4
  call void @llvm.lifetime.end.p0(i64 8, ptr %11) #3
  br label %51

51:                                               ; preds = %47, %35
  call void @llvm.lifetime.end.p0(i64 8, ptr %10) #3
  br label %52

52:                                               ; preds = %51, %31
  call void @llvm.lifetime.end.p0(i64 8, ptr %7) #3
  call void @llvm.lifetime.end.p0(i64 8, ptr %6) #3
  br label %94

53:                                               ; preds = %30
  call void @llvm.lifetime.start.p0(i64 8, ptr %12) #3
  %54 = getelementptr inbounds nuw %"class.dd::simplifier", ptr %16, i32 0, i32 0
  %55 = load ptr, ptr %54, align 8, !tbaa !8
  %56 = getelementptr inbounds nuw %"class.dd::solver", ptr %55, i32 0, i32 7
  store ptr %56, ptr %12, align 8, !tbaa !17
  call void @llvm.lifetime.start.p0(i64 8, ptr %13) #3
  %57 = load ptr, ptr %12, align 8, !tbaa !17
  %58 = invoke noundef ptr @_ZN6vectorIPN2dd6solver8equationELb0EjE5beginEv(ptr noundef nonnull align 8 dereferenceable(8) %57)
          to label %59 unwind label %68

59:                                               ; preds = %53
  store ptr %58, ptr %13, align 8, !tbaa !19
  call void @llvm.lifetime.start.p0(i64 8, ptr %14) #3
  %60 = load ptr, ptr %12, align 8, !tbaa !17
  %61 = invoke noundef ptr @_ZN6vectorIPN2dd6solver8equationELb0EjE3endEv(ptr noundef nonnull align 8 dereferenceable(8) %60)
          to label %62 unwind label %72

62:                                               ; preds = %59
  store ptr %61, ptr %14, align 8, !tbaa !19
  br label %63

63:                                               ; preds = %81, %62
  %64 = load ptr, ptr %13, align 8, !tbaa !19
  %65 = load ptr, ptr %14, align 8, !tbaa !19
  %66 = icmp ne ptr %64, %65
  br i1 %66, label %76, label %67

67:                                               ; preds = %63
  call void @llvm.lifetime.end.p0(i64 8, ptr %14) #3
  call void @llvm.lifetime.end.p0(i64 8, ptr %13) #3
  call void @llvm.lifetime.end.p0(i64 8, ptr %12) #3
  br label %90

68:                                               ; preds = %53
  %69 = landingpad { ptr, i32 }
          cleanup
  %70 = extractvalue { ptr, i32 } %69, 0
  store ptr %70, ptr %8, align 8
  %71 = extractvalue { ptr, i32 } %69, 1
  store i32 %71, ptr %9, align 4
  br label %89

72:                                               ; preds = %59
  %73 = landingpad { ptr, i32 }
          cleanup
  %74 = extractvalue { ptr, i32 } %73, 0
  store ptr %74, ptr %8, align 8
  %75 = extractvalue { ptr, i32 } %73, 1
  store i32 %75, ptr %9, align 4
  br label %88

76:                                               ; preds = %63
  call void @llvm.lifetime.start.p0(i64 8, ptr %15) #3
  %77 = load ptr, ptr %13, align 8, !tbaa !19
  %78 = load ptr, ptr %77, align 8, !tbaa !22
  store ptr %78, ptr %15, align 8, !tbaa !22
  %79 = load ptr, ptr %15, align 8, !tbaa !22
  invoke void @_ZN2dd10simplifier10add_to_useEPNS_6solver8equationER6vectorI10ptr_vectorIS2_ELb1EjE(ptr noundef nonnull align 8 dereferenceable(8) %16, ptr noundef %79, ptr noundef nonnull align 8 dereferenceable(8) %0)
          to label %80 unwind label %84

80:                                               ; preds = %76
  call void @llvm.lifetime.end.p0(i64 8, ptr %15) #3
  br label %81

81:                                               ; preds = %80
  %82 = load ptr, ptr %13, align 8, !tbaa !19
  %83 = getelementptr inbounds nuw ptr, ptr %82, i32 1
  store ptr %83, ptr %13, align 8, !tbaa !19
  br label %63

84:                                               ; preds = %76
  %85 = landingpad { ptr, i32 }
          cleanup
  %86 = extractvalue { ptr, i32 } %85, 0
  store ptr %86, ptr %8, align 8
  %87 = extractvalue { ptr, i32 } %85, 1
  store i32 %87, ptr %9, align 4
  call void @llvm.lifetime.end.p0(i64 8, ptr %15) #3
  br label %88

88:                                               ; preds = %84, %72
  call void @llvm.lifetime.end.p0(i64 8, ptr %14) #3
  br label %89

89:                                               ; preds = %88, %68
  call void @llvm.lifetime.end.p0(i64 8, ptr %13) #3
  call void @llvm.lifetime.end.p0(i64 8, ptr %12) #3
  br label %94

90:                                               ; preds = %67
  store i1 true, ptr %5, align 1
  %91 = load i1, ptr %5, align 1
  br i1 %91, label %93, label %92

92:                                               ; preds = %90
  call void @_ZN6vectorI10ptr_vectorIN2dd6solver8equationEELb1EjED2Ev(ptr noundef nonnull align 8 dereferenceable(8) %0) #3
  br label %93

93:                                               ; preds = %92, %90
  ret void

94:                                               ; preds = %89, %52
  call void @_ZN6vectorI10ptr_vectorIN2dd6solver8equationEELb1EjED2Ev(ptr noundef nonnull align 8 dereferenceable(8) %0) #3
  br label %95

95:                                               ; preds = %94
  %96 = load ptr, ptr %8, align 8
  %97 = load i32, ptr %9, align 4
  %98 = insertvalue { ptr, i32 } poison, ptr %96, 0
  %99 = insertvalue { ptr, i32 } %98, i32 %97, 1
  resume { ptr, i32 } %99
}