; Function Attrs: mustprogress uwtable
define hidden void @_ZN2dd10simplifier12get_use_listEv(ptr dead_on_unwind noalias writable sret(%class.vector.2) align 8 initializes((0, 8)) %0, ptr noundef nonnull readonly align 8 captures(none) dereferenceable(8) %1) local_unnamed_addr #3 align 2 personality ptr @__gxx_personality_v0 {
  store ptr null, ptr %0, align 8, !tbaa !29
  %3 = load ptr, ptr %1, align 8, !tbaa !3
  %4 = getelementptr inbounds nuw i8, ptr %3, i64 152
  %5 = load ptr, ptr %4, align 8, !tbaa !11
  %6 = icmp eq ptr %5, null
  br i1 %6, label %._crit_edge, label %_ZN6vectorIPN2dd6solver8equationELb0EjE3endEv.exit

_ZN6vectorIPN2dd6solver8equationELb0EjE3endEv.exit: ; preds = %2
  %7 = getelementptr inbounds i8, ptr %5, i64 -4
  %8 = load i32, ptr %7, align 4, !tbaa !15
  %9 = zext i32 %8 to i64
  %10 = getelementptr inbounds nuw ptr, ptr %5, i64 %9
  %.not24 = icmp eq i32 %8, 0
  br i1 %.not24, label %._crit_edge, label %.lr.ph

._crit_edge.loopexit:                             ; preds = %20
  %.pre = load ptr, ptr %1, align 8, !tbaa !3
  br label %._crit_edge

._crit_edge:                                      ; preds = %2, %._crit_edge.loopexit, %_ZN6vectorIPN2dd6solver8equationELb0EjE3endEv.exit
  %11 = phi ptr [ %.pre, %._crit_edge.loopexit ], [ %3, %_ZN6vectorIPN2dd6solver8equationELb0EjE3endEv.exit ], [ %3, %2 ]
  %12 = getelementptr inbounds nuw i8, ptr %11, i64 144
  %13 = load ptr, ptr %12, align 8, !tbaa !11
  %14 = icmp eq ptr %13, null
  br i1 %14, label %._crit_edge29, label %_ZN6vectorIPN2dd6solver8equationELb0EjE3endEv.exit23

_ZN6vectorIPN2dd6solver8equationELb0EjE3endEv.exit23: ; preds = %._crit_edge
  %15 = getelementptr inbounds i8, ptr %13, i64 -4
  %16 = load i32, ptr %15, align 4, !tbaa !15
  %17 = zext i32 %16 to i64
  %18 = getelementptr inbounds nuw ptr, ptr %13, i64 %17
  %.not2026 = icmp eq i32 %16, 0
  br i1 %.not2026, label %._crit_edge29, label %.lr.ph28

.lr.ph:                                           ; preds = %_ZN6vectorIPN2dd6solver8equationELb0EjE3endEv.exit, %20
  %.025 = phi ptr [ %21, %20 ], [ %5, %_ZN6vectorIPN2dd6solver8equationELb0EjE3endEv.exit ]
  %19 = load ptr, ptr %.025, align 8, !tbaa !17
  invoke void @_ZN2dd10simplifier10add_to_useEPNS_6solver8equationER6vectorI10ptr_vectorIS2_ELb1EjE(ptr nonnull align 8 poison, ptr noundef %19, ptr noundef nonnull align 8 dereferenceable(8) %0)
          to label %20 unwind label %22

20:                                               ; preds = %.lr.ph
  %21 = getelementptr inbounds nuw i8, ptr %.025, i64 8
  %.not = icmp eq ptr %21, %10
  br i1 %.not, label %._crit_edge.loopexit, label %.lr.ph

22:                                               ; preds = %.lr.ph
  %23 = landingpad { ptr, i32 }
          cleanup
  br label %29

.lr.ph28:                                         ; preds = %_ZN6vectorIPN2dd6solver8equationELb0EjE3endEv.exit23, %25
  %.01727 = phi ptr [ %26, %25 ], [ %13, %_ZN6vectorIPN2dd6solver8equationELb0EjE3endEv.exit23 ]
  %24 = load ptr, ptr %.01727, align 8, !tbaa !17
  invoke void @_ZN2dd10simplifier10add_to_useEPNS_6solver8equationER6vectorI10ptr_vectorIS2_ELb1EjE(ptr nonnull align 8 poison, ptr noundef %24, ptr noundef nonnull align 8 dereferenceable(8) %0)
          to label %25 unwind label %27

25:                                               ; preds = %.lr.ph28
  %26 = getelementptr inbounds nuw i8, ptr %.01727, i64 8
  %.not20 = icmp eq ptr %26, %18
  br i1 %.not20, label %._crit_edge29, label %.lr.ph28

27:                                               ; preds = %.lr.ph28
  %28 = landingpad { ptr, i32 }
          cleanup
  br label %29

._crit_edge29:                                    ; preds = %25, %._crit_edge, %_ZN6vectorIPN2dd6solver8equationELb0EjE3endEv.exit23
  ret void

29:                                               ; preds = %27, %22
  %.pn = phi { ptr, i32 } [ %23, %22 ], [ %28, %27 ]
  tail call void @_ZN6vectorI10ptr_vectorIN2dd6solver8equationEELb1EjED2Ev(ptr noundef nonnull align 8 dereferenceable(8) %0) #23
  resume { ptr, i32 } %.pn
}